target datalayout = "e-m:e-p270:32:32-p271:32:32-p272:64:64-i64:64-i128:128-f80:128-n8:16:32:64-S128"
target triple = "x86_64-pc-linux-gnu"

%"class.std::__cxx11::basic_string" = type { %"struct.std::__cxx11::basic_string<char>::_Alloc_hider", i64, %union.anon }
%"struct.std::__cxx11::basic_string<char>::_Alloc_hider" = type { ptr }
%union.anon = type { i64, [8 x i8] }
%"class.pxrInternal_v0_24__pxrReserved__::TfCallContext" = type <{ ptr, ptr, i64, ptr, i8, [7 x i8] }>

@.str.17 = private unnamed_addr constant [1 x i8] zeroinitializer, align 1
@.str.18 = private unnamed_addr constant [15 x i8] c"%s%s: %s [%s]\0A\00", align 1
@.str.19 = private unnamed_addr constant [20 x i8] c" (secondary thread)\00", align 1
@.str.20 = private unnamed_addr constant [37 x i8] c"%s%s: in %s at line %zu of %s -- %s\0A\00", align 1

; Function Attrs: mustprogress nounwind uwtable
define linkonce_odr noundef i64 @_ZNK32pxrInternal_v0_24__pxrReserved__13TfCallContext7GetLineEv(ptr noundef nonnull align 8 dereferenceable(33) %0) #1 comdat align 2 {
  %2 = alloca ptr, align 8
  store ptr %0, ptr %2, align 8
  %3 = load ptr, ptr %2, align 8
  %4 = getelementptr inbounds nuw %"class.pxrInternal_v0_24__pxrReserved__::TfCallContext", ptr %3, i32 0, i32 2
  %5 = load i64, ptr %4, align 8
  ret i64 %5
}

; Function Attrs: mustprogress nounwind uwtable
define linkonce_odr noundef ptr @_ZNK32pxrInternal_v0_24__pxrReserved__13TfCallContext7GetFileEv(ptr noundef nonnull align 8 dereferenceable(33) %0) #1 comdat align 2 {
  %2 = alloca ptr, align 8
  store ptr %0, ptr %2, align 8
  %3 = load ptr, ptr %2, align 8
  %4 = getelementptr inbounds nuw %"class.pxrInternal_v0_24__pxrReserved__::TfCallContext", ptr %3, i32 0, i32 0
  %5 = load ptr, ptr %4, align 8
  ret ptr %5
}

; Function Attrs: mustprogress nounwind uwtable
define linkonce_odr noundef ptr @_ZNK32pxrInternal_v0_24__pxrReserved__13TfCallContext11GetFunctionEv(ptr noundef nonnull align 8 dereferenceable(33) %0) #1 comdat align 2 {
  %2 = alloca ptr, align 8
  store ptr %0, ptr %2, align 8
  %3 = load ptr, ptr %2, align 8
  %4 = getelementptr inbounds nuw %"class.pxrInternal_v0_24__pxrReserved__::TfCallContext", ptr %3, i32 0, i32 1
  %5 = load ptr, ptr %4, align 8
  ret ptr %5
}

; Function Attrs: mustprogress nounwind uwtable
define linkonce_odr noundef zeroext i1 @_ZNK32pxrInternal_v0_24__pxrReserved__13TfCallContext8IsHiddenEv(ptr noundef nonnull align 8 dereferenceable(33) %0) #1 comdat align 2 {
  %2 = alloca ptr, align 8
  store ptr %0, ptr %2, align 8
  %3 = load ptr, ptr %2, align 8
  %4 = getelementptr inbounds nuw %"class.pxrInternal_v0_24__pxrReserved__::TfCallContext", ptr %3, i32 0, i32 4
  %5 = load i8, ptr %4, align 8
  %6 = trunc i8 %5 to i1
  ret i1 %6
}

; Function Attrs: mustprogress uwtable
define void @_ZN32pxrInternal_v0_24__pxrReserved__15TfDiagnosticMgr16FormatDiagnosticERKNS_6TfEnumERKNS_13TfCallContextERKNSt7__cxx1112basic_stringIcSt11char_traitsIcESaIcEEERKSt3any(ptr dead_on_unwind noalias writable sret(%"class.std::__cxx11::basic_string") align 8 %0, ptr noundef nonnull align 8 dereferenceable(12) %1, ptr noundef nonnull align 8 dereferenceable(33) %2, ptr noundef nonnull align 8 dereferenceable(32) %3, ptr noundef nonnull align 8 dereferenceable(16) %4) #0 align 2 personality ptr @__gxx_personality_v0 {
  %6 = alloca ptr, align 8
  %7 = alloca ptr, align 8
  %8 = alloca ptr, align 8
  %9 = alloca ptr, align 8
  %10 = alloca ptr, align 8
  %11 = alloca i1, align 1
  %12 = alloca %"class.std::__cxx11::basic_string", align 8
  %13 = alloca ptr, align 8
  %14 = alloca i32, align 4
  %15 = alloca %"class.std::__cxx11::basic_string", align 8
  %16 = alloca %"class.std::__cxx11::basic_string", align 8
  store ptr %0, ptr %6, align 8
  store ptr %1, ptr %7, align 8
  store ptr %2, ptr %8, align 8
  store ptr %3, ptr %9, align 8
  store ptr %4, ptr %10, align 8
  store i1 false, ptr %11, align 1
  call void @_ZNSt7__cxx1112basic_stringIcSt11char_traitsIcESaIcEEC1Ev(ptr noundef nonnull align 8 dereferenceable(32) %0) #13
  %17 = load ptr, ptr %7, align 8
  invoke void @_ZN32pxrInternal_v0_24__pxrReserved__15TfDiagnosticMgr11GetCodeNameB5cxx11ERKNS_6TfEnumE(ptr dead_on_unwind writable sret(%"class.std::__cxx11::basic_string") align 8 %12, ptr noundef nonnull align 8 dereferenceable(12) %17)
          to label %18 unwind label %45

18:                                               ; preds = %5
  %19 = load ptr, ptr %8, align 8
  %20 = invoke noundef zeroext i1 @_ZNK32pxrInternal_v0_24__pxrReserved__13TfCallContext8IsHiddenEv(ptr noundef nonnull align 8 dereferenceable(33) %19)
          to label %21 unwind label %49

21:                                               ; preds = %18
  br i1 %20, label %34, label %22

22:                                               ; preds = %21
  %23 = load ptr, ptr %8, align 8
  %24 = invoke noundef ptr @_ZNK32pxrInternal_v0_24__pxrReserved__13TfCallContext11GetFunctionEv(ptr noundef nonnull align 8 dereferenceable(33) %23)
          to label %25 unwind label %49

25:                                               ; preds = %22
  %26 = call i32 @strcmp(ptr noundef %24, ptr noundef @.str.17) #24
  %27 = icmp ne i32 %26, 0
  br i1 %27, label %28, label %34

28:                                               ; preds = %25
  %29 = load ptr, ptr %8, align 8
  %30 = invoke noundef ptr @_ZNK32pxrInternal_v0_24__pxrReserved__13TfCallContext7GetFileEv(ptr noundef nonnull align 8 dereferenceable(33) %29)
          to label %31 unwind label %49

31:                                               ; preds = %28
  %32 = call i32 @strcmp(ptr noundef %30, ptr noundef @.str.17) #24
  %33 = icmp ne i32 %32, 0
  br i1 %33, label %53, label %34

34:                                               ; preds = %31, %25, %21
  %35 = call noundef ptr @_ZNKSt7__cxx1112basic_stringIcSt11char_traitsIcESaIcEE5c_strEv(ptr noundef nonnull align 8 dereferenceable(32) %12) #13
  %36 = invoke noundef zeroext i1 @_ZN32pxrInternal_v0_24__pxrReserved__16ArchIsMainThreadEv()
          to label %37 unwind label %49

37:                                               ; preds = %34
  %38 = select i1 %36, ptr @.str.17, ptr @.str.19
  %39 = load ptr, ptr %9, align 8
  %40 = call noundef ptr @_ZNKSt7__cxx1112basic_stringIcSt11char_traitsIcESaIcEE5c_strEv(ptr noundef nonnull align 8 dereferenceable(32) %39) #13
  %41 = invoke noundef ptr @_ZN32pxrInternal_v0_24__pxrReserved__27ArchGetProgramNameForErrorsEv()
          to label %42 unwind label %49

42:                                               ; preds = %37
  invoke void (ptr, ptr, ...) @_ZN32pxrInternal_v0_24__pxrReserved__14TfStringPrintfB5cxx11EPKcz(ptr dead_on_unwind writable sret(%"class.std::__cxx11::basic_string") align 8 %15, ptr noundef @.str.18, ptr noundef %35, ptr noundef %38, ptr noundef %40, ptr noundef %41)
          to label %43 unwind label %49

43:                                               ; preds = %42
  %44 = call noundef nonnull align 8 dereferenceable(32) ptr @_ZNSt7__cxx1112basic_stringIcSt11char_traitsIcESaIcEEaSEOS4_(ptr noundef nonnull align 8 dereferenceable(32) %0, ptr noundef nonnull align 8 dereferenceable(32) %15) #13
  call void @_ZNSt7__cxx1112basic_stringIcSt11char_traitsIcESaIcEED1Ev(ptr noundef nonnull align 8 dereferenceable(32) %15) #13
  br label %71

45:                                               ; preds = %5
  %46 = landingpad { ptr, i32 }
          cleanup
  %47 = extractvalue { ptr, i32 } %46, 0
  store ptr %47, ptr %13, align 8
  %48 = extractvalue { ptr, i32 } %46, 1
  store i32 %48, ptr %14, align 4
  br label %75

49:                                               ; preds = %66, %63, %60, %56, %53, %42, %37, %34, %28, %22, %18
  %50 = landingpad { ptr, i32 }
          cleanup
  %51 = extractvalue { ptr, i32 } %50, 0
  store ptr %51, ptr %13, align 8
  %52 = extractvalue { ptr, i32 } %50, 1
  store i32 %52, ptr %14, align 4
  call void @_ZNSt7__cxx1112basic_stringIcSt11char_traitsIcESaIcEED1Ev(ptr noundef nonnull align 8 dereferenceable(32) %12) #13
  br label %75

53:                                               ; preds = %31
  %54 = call noundef ptr @_ZNKSt7__cxx1112basic_stringIcSt11char_traitsIcESaIcEE5c_strEv(ptr noundef nonnull align 8 dereferenceable(32) %12) #13
  %55 = invoke noundef zeroext i1 @_ZN32pxrInternal_v0_24__pxrReserved__16ArchIsMainThreadEv()
          to label %56 unwind label %49

56:                                               ; preds = %53
  %57 = select i1 %55, ptr @.str.17, ptr @.str.19
  %58 = load ptr, ptr %8, align 8
  %59 = invoke noundef ptr @_ZNK32pxrInternal_v0_24__pxrReserved__13TfCallContext11GetFunctionEv(ptr noundef nonnull align 8 dereferenceable(33) %58)
          to label %60 unwind label %49

60:                                               ; preds = %56
  %61 = load ptr, ptr %8, align 8
  %62 = invoke noundef i64 @_ZNK32pxrInternal_v0_24__pxrReserved__13TfCallContext7GetLineEv(ptr noundef nonnull align 8 dereferenceable(33) %61)
          to label %63 unwind label %49

63:                                               ; preds = %60
  %64 = load ptr, ptr %8, align 8
  %65 = invoke noundef ptr @_ZNK32pxrInternal_v0_24__pxrReserved__13TfCallContext7GetFileEv(ptr noundef nonnull align 8 dereferenceable(33) %64)
          to label %66 unwind label %49

66:                                               ; preds = %63
  %67 = load ptr, ptr %9, align 8
  %68 = call noundef ptr @_ZNKSt7__cxx1112basic_stringIcSt11char_traitsIcESaIcEE5c_strEv(ptr noundef nonnull align 8 dereferenceable(32) %67) #13
  invoke void (ptr, ptr, ...) @_ZN32pxrInternal_v0_24__pxrReserved__14TfStringPrintfB5cxx11EPKcz(ptr dead_on_unwind writable sret(%"class.std::__cxx11::basic_string") align 8 %16, ptr noundef @.str.20, ptr noundef %54, ptr noundef %57, ptr noundef %59, i64 noundef %62, ptr noundef %65, ptr noundef %68)
          to label %69 unwind label %49

69:                                               ; preds = %66
  %70 = call noundef nonnull align 8 dereferenceable(32) ptr @_ZNSt7__cxx1112basic_stringIcSt11char_traitsIcESaIcEEaSEOS4_(ptr noundef nonnull align 8 dereferenceable(32) %0, ptr noundef nonnull align 8 dereferenceable(32) %16) #13
  call void @_ZNSt7__cxx1112basic_stringIcSt11char_traitsIcESaIcEED1Ev(ptr noundef nonnull align 8 dereferenceable(32) %16) #13
  br label %71

71:                                               ; preds = %69, %43
  store i1 true, ptr %11, align 1
  call void @_ZNSt7__cxx1112basic_stringIcSt11char_traitsIcESaIcEED1Ev(ptr noundef nonnull align 8 dereferenceable(32) %12) #13
  %72 = load i1, ptr %11, align 1
  br i1 %72, label %74, label %73

73:                                               ; preds = %71
  call void @_ZNSt7__cxx1112basic_stringIcSt11char_traitsIcESaIcEED1Ev(ptr noundef nonnull align 8 dereferenceable(32) %0) #13
  br label %74

74:                                               ; preds = %73, %71
  ret void

75:                                               ; preds = %49, %45
  call void @_ZNSt7__cxx1112basic_stringIcSt11char_traitsIcESaIcEED1Ev(ptr noundef nonnull align 8 dereferenceable(32) %0) #13
  br label %76

76:                                               ; preds = %75
  %77 = load ptr, ptr %13, align 8
  %78 = load i32, ptr %14, align 4
  %79 = insertvalue { ptr, i32 } poison, ptr %77, 0
  %80 = insertvalue { ptr, i32 } %79, i32 %78, 1
  resume { ptr, i32 } %80
}