; Function Attrs: mustprogress uwtable
define void @_ZN32pxrInternal_v0_24__pxrReserved__15TfDiagnosticMgr16FormatDiagnosticERKNS_6TfEnumERKNS_13TfCallContextERKNSt7__cxx1112basic_stringIcSt11char_traitsIcESaIcEEERKSt3any(ptr dead_on_unwind noalias nonnull writable sret(%"class.std::__cxx11::basic_string") align 8 %0, ptr noundef nonnull readonly align 8 captures(none) dereferenceable(12) %1, ptr noundef nonnull readonly align 8 captures(none) dereferenceable(33) %2, ptr noundef nonnull align 8 dereferenceable(32) %3, ptr nonnull readnone align 8 captures(none) %4) local_unnamed_addr #0 align 2 personality ptr @__gxx_personality_v0 {
  %6 = alloca %"class.std::__cxx11::basic_string", align 8
  %7 = alloca %"class.std::__cxx11::basic_string", align 8
  %8 = alloca %"class.std::__cxx11::basic_string", align 8
  tail call void @_ZNSt7__cxx1112basic_stringIcSt11char_traitsIcESaIcEEC1Ev(ptr noundef nonnull align 8 dereferenceable(32) %0) #23
  invoke void @_ZN32pxrInternal_v0_24__pxrReserved__15TfDiagnosticMgr11GetCodeNameB5cxx11ERKNS_6TfEnumE(ptr dead_on_unwind nonnull writable sret(%"class.std::__cxx11::basic_string") align 8 %6, ptr noundef nonnull align 8 dereferenceable(12) %1)
          to label %9 unwind label %26

9:                                                ; preds = %5
  %10 = getelementptr inbounds nuw i8, ptr %2, i64 32
  %11 = load i8, ptr %10, align 8
  %12 = trunc i8 %11 to i1
  br i1 %12, label %18, label %13

13:                                               ; preds = %9
  %14 = getelementptr inbounds nuw i8, ptr %2, i64 8
  %15 = load ptr, ptr %14, align 8
  %strcmpload = load i8, ptr %15, align 1
  %.not = icmp eq i8 %strcmpload, 0
  br i1 %.not, label %18, label %16

16:                                               ; preds = %13
  %17 = load ptr, ptr %2, align 8
  %strcmpload12 = load i8, ptr %17, align 1
  %.not13 = icmp eq i8 %strcmpload12, 0
  br i1 %.not13, label %18, label %30

18:                                               ; preds = %16, %13, %9
  %19 = call noundef ptr @_ZNKSt7__cxx1112basic_stringIcSt11char_traitsIcESaIcEE5c_strEv(ptr noundef nonnull align 8 dereferenceable(32) %6) #23
  %20 = invoke noundef zeroext i1 @_ZN32pxrInternal_v0_24__pxrReserved__16ArchIsMainThreadEv()
          to label %21 unwind label %28

21:                                               ; preds = %18
  %22 = call noundef ptr @_ZNKSt7__cxx1112basic_stringIcSt11char_traitsIcESaIcEE5c_strEv(ptr noundef nonnull align 8 dereferenceable(32) %3) #23
  %23 = invoke noundef ptr @_ZN32pxrInternal_v0_24__pxrReserved__27ArchGetProgramNameForErrorsEv()
          to label %24 unwind label %28

24:                                               ; preds = %21
  %25 = select i1 %20, ptr @.str.17, ptr @.str.19
  invoke void (ptr, ptr, ...) @_ZN32pxrInternal_v0_24__pxrReserved__14TfStringPrintfB5cxx11EPKcz(ptr dead_on_unwind nonnull writable sret(%"class.std::__cxx11::basic_string") align 8 %7, ptr noundef nonnull @.str.18, ptr noundef %19, ptr noundef nonnull %25, ptr noundef %22, ptr noundef %23)
          to label %40 unwind label %28

26:                                               ; preds = %5
  %27 = landingpad { ptr, i32 }
          cleanup
  br label %42

28:                                               ; preds = %33, %30, %24, %21, %18
  %29 = landingpad { ptr, i32 }
          cleanup
  call void @_ZNSt7__cxx1112basic_stringIcSt11char_traitsIcESaIcEED1Ev(ptr noundef nonnull align 8 dereferenceable(32) %6) #23
  br label %42

30:                                               ; preds = %16
  %31 = call noundef ptr @_ZNKSt7__cxx1112basic_stringIcSt11char_traitsIcESaIcEE5c_strEv(ptr noundef nonnull align 8 dereferenceable(32) %6) #23
  %32 = invoke noundef zeroext i1 @_ZN32pxrInternal_v0_24__pxrReserved__16ArchIsMainThreadEv()
          to label %33 unwind label %28

33:                                               ; preds = %30
  %34 = select i1 %32, ptr @.str.17, ptr @.str.19
  %35 = load ptr, ptr %14, align 8
  %36 = getelementptr inbounds nuw i8, ptr %2, i64 16
  %37 = load i64, ptr %36, align 8
  %38 = load ptr, ptr %2, align 8
  %39 = call noundef ptr @_ZNKSt7__cxx1112basic_stringIcSt11char_traitsIcESaIcEE5c_strEv(ptr noundef nonnull align 8 dereferenceable(32) %3) #23
  invoke void (ptr, ptr, ...) @_ZN32pxrInternal_v0_24__pxrReserved__14TfStringPrintfB5cxx11EPKcz(ptr dead_on_unwind nonnull writable sret(%"class.std::__cxx11::basic_string") align 8 %8, ptr noundef nonnull @.str.20, ptr noundef %31, ptr noundef nonnull %34, ptr noundef %35, i64 noundef %37, ptr noundef %38, ptr noundef %39)
          to label %40 unwind label %28

40:                                               ; preds = %33, %24
  %.sink15 = phi ptr [ %7, %24 ], [ %8, %33 ]
  %41 = call noundef nonnull align 8 dereferenceable(32) ptr @_ZNSt7__cxx1112basic_stringIcSt11char_traitsIcESaIcEEaSEOS4_(ptr noundef nonnull align 8 dereferenceable(32) %0, ptr noundef nonnull align 8 dereferenceable(32) %.sink15) #23
  call void @_ZNSt7__cxx1112basic_stringIcSt11char_traitsIcESaIcEED1Ev(ptr noundef nonnull align 8 dereferenceable(32) %.sink15) #23
  call void @_ZNSt7__cxx1112basic_stringIcSt11char_traitsIcESaIcEED1Ev(ptr noundef nonnull align 8 dereferenceable(32) %6) #23
  ret void

42:                                               ; preds = %28, %26
  %.pn = phi { ptr, i32 } [ %29, %28 ], [ %27, %26 ]
  call void @_ZNSt7__cxx1112basic_stringIcSt11char_traitsIcESaIcEED1Ev(ptr noundef nonnull align 8 dereferenceable(32) %0) #23
  resume { ptr, i32 } %.pn
}